; Function Attrs: nounwind uwtable
define ptr @l_Lean_Meta_LazyDiscrTree_getChildNgen___rarg___lambda__1___boxed(ptr noundef %0, ptr noundef %1, ptr noundef %2) #1 {
  %4 = tail call ptr @l_Lean_Meta_LazyDiscrTree_getChildNgen___rarg___lambda__1(ptr noundef %0, ptr noundef %1, ptr poison)
  %5 = ptrtoint ptr %2 to i64
  %6 = and i64 %5, 1
  %.not = icmp eq i64 %6, 0
  br i1 %.not, label %7, label %lean_dec.exit

7:                                                ; preds = %3
  %8 = load i32, ptr %2, align 4, !tbaa !8
  %9 = icmp sgt i32 %8, 1
  br i1 %9, label %10, label %12, !prof !11

10:                                               ; preds = %7
  %11 = add nsw i32 %8, -1
  store i32 %11, ptr %2, align 4, !tbaa !8
  br label %lean_dec.exit

12:                                               ; preds = %7
  %.not.i = icmp eq i32 %8, 0
  br i1 %.not.i, label %lean_dec.exit, label %13

13:                                               ; preds = %12
  tail call void @lean_dec_ref_cold(ptr noundef nonnull %2) #6
  br label %lean_dec.exit

lean_dec.exit:                                    ; preds = %13, %12, %10, %3
  ret ptr %4
}